target datalayout = "e-m:e-p270:32:32-p271:32:32-p272:64:64-i64:64-i128:128-f80:128-n8:16:32:64-S128"
target triple = "x86_64-pc-linux-gnu"

%struct.mpd_t = type { i8, i64, i64, i64, i64, ptr }

@MPD_MINALLOC = external hidden global i64, align 8

; Function Attrs: alwaysinline nounwind uwtable
define hidden i32 @mpd_isstatic_data(ptr noundef %0) #1 {
  %2 = alloca ptr, align 8
  store ptr %0, ptr %2, align 8, !tbaa !7
  %3 = load ptr, ptr %2, align 8, !tbaa !7
  %4 = getelementptr inbounds nuw %struct.mpd_t, ptr %3, i32 0, i32 0
  %5 = load i8, ptr %4, align 8, !tbaa !25
  %6 = zext i8 %5 to i32
  %7 = and i32 %6, 32
  ret i32 %7
}

; Function Attrs: alwaysinline nounwind uwtable
define hidden void @mpd_set_positive(ptr noundef %0) #1 {
  %2 = alloca ptr, align 8
  store ptr %0, ptr %2, align 8, !tbaa !7
  %3 = load ptr, ptr %2, align 8, !tbaa !7
  %4 = getelementptr inbounds nuw %struct.mpd_t, ptr %3, i32 0, i32 0
  %5 = load i8, ptr %4, align 8, !tbaa !25
  %6 = zext i8 %5 to i32
  %7 = and i32 %6, -2
  %8 = trunc i32 %7 to i8
  store i8 %8, ptr %4, align 8, !tbaa !25
  ret void
}

; Function Attrs: alwaysinline nounwind uwtable
define hidden void @mpd_set_qnan(ptr noundef %0) #1 {
  %2 = alloca ptr, align 8
  store ptr %0, ptr %2, align 8, !tbaa !7
  %3 = load ptr, ptr %2, align 8, !tbaa !7
  %4 = getelementptr inbounds nuw %struct.mpd_t, ptr %3, i32 0, i32 0
  %5 = load i8, ptr %4, align 8, !tbaa !25
  %6 = zext i8 %5 to i32
  %7 = and i32 %6, -15
  %8 = trunc i32 %7 to i8
  store i8 %8, ptr %4, align 8, !tbaa !25
  %9 = load ptr, ptr %2, align 8, !tbaa !7
  %10 = getelementptr inbounds nuw %struct.mpd_t, ptr %9, i32 0, i32 0
  %11 = load i8, ptr %10, align 8, !tbaa !25
  %12 = zext i8 %11 to i32
  %13 = or i32 %12, 4
  %14 = trunc i32 %13 to i8
  store i8 %14, ptr %10, align 8, !tbaa !25
  ret void
}

; Function Attrs: alwaysinline nounwind uwtable
define hidden void @mpd_minalloc(ptr noundef %0) #1 {
  %2 = alloca ptr, align 8
  %3 = alloca i8, align 1
  store ptr %0, ptr %2, align 8, !tbaa !7
  %4 = load ptr, ptr %2, align 8, !tbaa !7
  %5 = call i32 @mpd_isstatic_data(ptr noundef %4)
  %6 = icmp ne i32 %5, 0
  br i1 %6, label %28, label %7

7:                                                ; preds = %1
  %8 = load ptr, ptr %2, align 8, !tbaa !7
  %9 = getelementptr inbounds nuw %struct.mpd_t, ptr %8, i32 0, i32 4
  %10 = load i64, ptr %9, align 8, !tbaa !31
  %11 = load i64, ptr @MPD_MINALLOC, align 8, !tbaa !3
  %12 = icmp sgt i64 %10, %11
  br i1 %12, label %13, label %28

13:                                               ; preds = %7
  call void @llvm.lifetime.start.p0(i64 1, ptr %3) #10
  store i8 0, ptr %3, align 1, !tbaa !32
  %14 = load ptr, ptr %2, align 8, !tbaa !7
  %15 = getelementptr inbounds nuw %struct.mpd_t, ptr %14, i32 0, i32 5
  %16 = load ptr, ptr %15, align 8, !tbaa !21
  %17 = load i64, ptr @MPD_MINALLOC, align 8, !tbaa !3
  %18 = call ptr @mpd_realloc(ptr noundef %16, i64 noundef %17, i64 noundef 8, ptr noundef %3)
  %19 = load ptr, ptr %2, align 8, !tbaa !7
  %20 = getelementptr inbounds nuw %struct.mpd_t, ptr %19, i32 0, i32 5
  store ptr %18, ptr %20, align 8, !tbaa !21
  %21 = load i8, ptr %3, align 1, !tbaa !32
  %22 = icmp ne i8 %21, 0
  br i1 %22, label %27, label %23

23:                                               ; preds = %13
  %24 = load i64, ptr @MPD_MINALLOC, align 8, !tbaa !3
  %25 = load ptr, ptr %2, align 8, !tbaa !7
  %26 = getelementptr inbounds nuw %struct.mpd_t, ptr %25, i32 0, i32 4
  store i64 %24, ptr %26, align 8, !tbaa !31
  br label %27

27:                                               ; preds = %23, %13
  call void @llvm.lifetime.end.p0(i64 1, ptr %3) #10
  br label %28

28:                                               ; preds = %27, %7, %1
  ret void
}

; Function Attrs: alwaysinline nounwind uwtable
define hidden zeroext i8 @mpd_sign(ptr noundef %0) #1 {
  %2 = alloca ptr, align 8
  store ptr %0, ptr %2, align 8, !tbaa !7
  %3 = load ptr, ptr %2, align 8, !tbaa !7
  %4 = getelementptr inbounds nuw %struct.mpd_t, ptr %3, i32 0, i32 0
  %5 = load i8, ptr %4, align 8, !tbaa !25
  %6 = zext i8 %5 to i32
  %7 = and i32 %6, 1
  %8 = trunc i32 %7 to i8
  ret i8 %8
}

; Function Attrs: alwaysinline nounwind uwtable
define hidden i32 @mpd_isspecial(ptr noundef %0) #1 {
  %2 = alloca ptr, align 8
  store ptr %0, ptr %2, align 8, !tbaa !7
  %3 = load ptr, ptr %2, align 8, !tbaa !7
  %4 = getelementptr inbounds nuw %struct.mpd_t, ptr %3, i32 0, i32 0
  %5 = load i8, ptr %4, align 8, !tbaa !25
  %6 = zext i8 %5 to i32
  %7 = and i32 %6, 14
  ret i32 %7
}

; Function Attrs: nounwind uwtable
define hidden void @mpd_seterror(ptr noundef %0, i32 noundef %1, ptr noundef %2) #0 {
  %4 = alloca ptr, align 8
  %5 = alloca i32, align 4
  %6 = alloca ptr, align 8
  store ptr %0, ptr %4, align 8, !tbaa !7
  store i32 %1, ptr %5, align 4, !tbaa !23
  store ptr %2, ptr %6, align 8, !tbaa !29
  %7 = load ptr, ptr %4, align 8, !tbaa !7
  call void @mpd_minalloc(ptr noundef %7)
  %8 = load ptr, ptr %4, align 8, !tbaa !7
  call void @mpd_set_qnan(ptr noundef %8)
  %9 = load ptr, ptr %4, align 8, !tbaa !7
  call void @mpd_set_positive(ptr noundef %9)
  %10 = load ptr, ptr %4, align 8, !tbaa !7
  %11 = getelementptr inbounds nuw %struct.mpd_t, ptr %10, i32 0, i32 3
  store i64 0, ptr %11, align 8, !tbaa !22
  %12 = load ptr, ptr %4, align 8, !tbaa !7
  %13 = getelementptr inbounds nuw %struct.mpd_t, ptr %12, i32 0, i32 2
  store i64 0, ptr %13, align 8, !tbaa !13
  %14 = load ptr, ptr %4, align 8, !tbaa !7
  %15 = getelementptr inbounds nuw %struct.mpd_t, ptr %14, i32 0, i32 1
  store i64 0, ptr %15, align 8, !tbaa !10
  %16 = load i32, ptr %5, align 4, !tbaa !23
  %17 = load ptr, ptr %6, align 8, !tbaa !29
  %18 = load i32, ptr %17, align 4, !tbaa !23
  %19 = or i32 %18, %16
  store i32 %19, ptr %17, align 4, !tbaa !23
  ret void
}

; Function Attrs: nounwind uwtable
define hidden void @mpd_qsub(ptr noundef %0, ptr noundef %1, ptr noundef %2, ptr noundef %3, ptr noundef %4) #0 {
  %6 = alloca ptr, align 8
  %7 = alloca ptr, align 8
  %8 = alloca ptr, align 8
  %9 = alloca ptr, align 8
  %10 = alloca ptr, align 8
  store ptr %0, ptr %6, align 8, !tbaa !7
  store ptr %1, ptr %7, align 8, !tbaa !7
  store ptr %2, ptr %8, align 8, !tbaa !7
  store ptr %3, ptr %9, align 8, !tbaa !14
  store ptr %4, ptr %10, align 8, !tbaa !29
  %11 = load ptr, ptr %7, align 8, !tbaa !7
  %12 = call i32 @mpd_isspecial(ptr noundef %11)
  %13 = icmp ne i32 %12, 0
  br i1 %13, label %18, label %14

14:                                               ; preds = %5
  %15 = load ptr, ptr %8, align 8, !tbaa !7
  %16 = call i32 @mpd_isspecial(ptr noundef %15)
  %17 = icmp ne i32 %16, 0
  br i1 %17, label %18, label %38

18:                                               ; preds = %14, %5
  %19 = load ptr, ptr %6, align 8, !tbaa !7
  %20 = load ptr, ptr %7, align 8, !tbaa !7
  %21 = load ptr, ptr %8, align 8, !tbaa !7
  %22 = load ptr, ptr %9, align 8, !tbaa !14
  %23 = load ptr, ptr %10, align 8, !tbaa !29
  %24 = call i32 @mpd_qcheck_nans(ptr noundef %19, ptr noundef %20, ptr noundef %21, ptr noundef %22, ptr noundef %23)
  %25 = icmp ne i32 %24, 0
  br i1 %25, label %26, label %27

26:                                               ; preds = %18
  br label %53

27:                                               ; preds = %18
  %28 = load ptr, ptr %6, align 8, !tbaa !7
  %29 = load ptr, ptr %7, align 8, !tbaa !7
  %30 = load ptr, ptr %8, align 8, !tbaa !7
  %31 = load ptr, ptr %8, align 8, !tbaa !7
  %32 = call zeroext i8 @mpd_sign(ptr noundef %31)
  %33 = icmp ne i8 %32, 0
  %34 = xor i1 %33, true
  %35 = zext i1 %34 to i32
  %36 = trunc i32 %35 to i8
  %37 = load ptr, ptr %10, align 8, !tbaa !29
  call void @_mpd_qaddsub_inf(ptr noundef %28, ptr noundef %29, ptr noundef %30, i8 noundef zeroext %36, ptr noundef %37)
  br label %53

38:                                               ; preds = %14
  %39 = load ptr, ptr %6, align 8, !tbaa !7
  %40 = load ptr, ptr %7, align 8, !tbaa !7
  %41 = load ptr, ptr %8, align 8, !tbaa !7
  %42 = load ptr, ptr %8, align 8, !tbaa !7
  %43 = call zeroext i8 @mpd_sign(ptr noundef %42)
  %44 = icmp ne i8 %43, 0
  %45 = xor i1 %44, true
  %46 = zext i1 %45 to i32
  %47 = trunc i32 %46 to i8
  %48 = load ptr, ptr %9, align 8, !tbaa !14
  %49 = load ptr, ptr %10, align 8, !tbaa !29
  call void @_mpd_qaddsub(ptr noundef %39, ptr noundef %40, ptr noundef %41, i8 noundef zeroext %47, ptr noundef %48, ptr noundef %49)
  %50 = load ptr, ptr %6, align 8, !tbaa !7
  %51 = load ptr, ptr %9, align 8, !tbaa !14
  %52 = load ptr, ptr %10, align 8, !tbaa !29
  call void @mpd_qfinalize(ptr noundef %50, ptr noundef %51, ptr noundef %52)
  br label %53

53:                                               ; preds = %38, %27, %26
  ret void
}

; Function Attrs: nounwind uwtable
define internal void @_mpd_qsub_exact(ptr noundef %0, ptr noundef %1, ptr noundef %2, ptr noundef %3, ptr noundef %4) #0 {
  %6 = alloca ptr, align 8
  %7 = alloca ptr, align 8
  %8 = alloca ptr, align 8
  %9 = alloca ptr, align 8
  %10 = alloca ptr, align 8
  %11 = alloca i32, align 4
  store ptr %0, ptr %6, align 8, !tbaa !7
  store ptr %1, ptr %7, align 8, !tbaa !7
  store ptr %2, ptr %8, align 8, !tbaa !7
  store ptr %3, ptr %9, align 8, !tbaa !14
  store ptr %4, ptr %10, align 8, !tbaa !29
  call void @llvm.lifetime.start.p0(i64 4, ptr %11) #10
  store i32 0, ptr %11, align 4, !tbaa !23
  %12 = load ptr, ptr %6, align 8, !tbaa !7
  %13 = load ptr, ptr %7, align 8, !tbaa !7
  %14 = load ptr, ptr %8, align 8, !tbaa !7
  %15 = load ptr, ptr %9, align 8, !tbaa !14
  call void @mpd_qsub(ptr noundef %12, ptr noundef %13, ptr noundef %14, ptr noundef %15, ptr noundef %11)
  %16 = load i32, ptr %11, align 4, !tbaa !23
  %17 = load ptr, ptr %10, align 8, !tbaa !29
  %18 = load i32, ptr %17, align 4, !tbaa !23
  %19 = or i32 %18, %16
  store i32 %19, ptr %17, align 4, !tbaa !23
  %20 = load i32, ptr %11, align 4, !tbaa !23
  %21 = and i32 %20, 4161
  %22 = icmp ne i32 %21, 0
  br i1 %22, label %23, label %26

23:                                               ; preds = %5
  %24 = load ptr, ptr %6, align 8, !tbaa !7
  %25 = load ptr, ptr %10, align 8, !tbaa !29
  call void @mpd_seterror(ptr noundef %24, i32 noundef 256, ptr noundef %25)
  br label %26

26:                                               ; preds = %23, %5
  call void @llvm.lifetime.end.p0(i64 4, ptr %11) #10
  ret void
}