; Function Attrs: nounwind uwtable
define internal fastcc void @_mpd_qsub_exact(ptr noundef %0, ptr noundef %1, ptr noundef %2, ptr noundef nonnull readonly captures(none) %3, ptr noundef nonnull captures(none) %4) unnamed_addr #10 {
  %6 = alloca i8, align 1
  %7 = alloca i32, align 4
  call void @llvm.lifetime.start.p0(i64 4, ptr nonnull %7) #33
  store i32 0, ptr %7, align 4, !tbaa !23
  %8 = load i8, ptr %1, align 8, !tbaa !19
  %9 = and i8 %8, 14
  %.not.i = icmp eq i8 %9, 0
  br i1 %.not.i, label %10, label %13

10:                                               ; preds = %5
  %11 = load i8, ptr %2, align 8, !tbaa !19
  %12 = and i8 %11, 14
  %.not21.i = icmp eq i8 %12, 0
  br i1 %.not21.i, label %19, label %13

13:                                               ; preds = %10, %5
  %14 = call i32 @mpd_qcheck_nans(ptr noundef %0, ptr noundef nonnull %1, ptr noundef %2, ptr noundef nonnull readonly %3, ptr noundef nonnull %7)
  %.not23.i = icmp eq i32 %14, 0
  br i1 %.not23.i, label %15, label %mpd_qsub.exit

15:                                               ; preds = %13
  %16 = load i8, ptr %2, align 8, !tbaa !19
  %17 = and i8 %16, 1
  %18 = xor i8 %17, 1
  %.val.i = load i8, ptr %1, align 8, !tbaa !19
  call fastcc void @_mpd_qaddsub_inf(ptr noundef %0, i8 %.val.i, ptr noundef nonnull %2, i8 noundef zeroext %18, ptr noundef nonnull %7)
  br label %mpd_qsub.exit

19:                                               ; preds = %10
  %20 = and i8 %11, 1
  %21 = xor i8 %20, 1
  call fastcc void @_mpd_qaddsub(ptr noundef %0, ptr noundef nonnull %1, ptr noundef nonnull %2, i8 noundef zeroext %21, ptr noundef nonnull readonly %3, ptr noundef nonnull %7)
  call void @mpd_qfinalize(ptr noundef %0, ptr noundef nonnull readonly %3, ptr noundef nonnull %7)
  br label %mpd_qsub.exit

mpd_qsub.exit:                                    ; preds = %13, %15, %19
  %22 = load i32, ptr %7, align 4, !tbaa !23
  %23 = load i32, ptr %4, align 4, !tbaa !23
  %24 = or i32 %23, %22
  store i32 %24, ptr %4, align 4, !tbaa !23
  %25 = and i32 %22, 4161
  %.not = icmp eq i32 %25, 0
  br i1 %.not, label %48, label %26

26:                                               ; preds = %mpd_qsub.exit
  %27 = load i8, ptr %0, align 8, !tbaa !19
  %28 = and i8 %27, 32
  %.not.i.i = icmp eq i8 %28, 0
  br i1 %.not.i.i, label %29, label %mpd_seterror.exit

29:                                               ; preds = %26
  %30 = getelementptr inbounds nuw i8, ptr %0, i64 32
  %31 = load i64, ptr %30, align 8, !tbaa !21
  %32 = load i64, ptr @MPD_MINALLOC, align 8, !tbaa !3
  %33 = icmp sgt i64 %31, %32
  br i1 %33, label %34, label %mpd_seterror.exit

34:                                               ; preds = %29
  call void @llvm.lifetime.start.p0(i64 1, ptr nonnull %6) #33
  store i8 0, ptr %6, align 1, !tbaa !22
  %35 = getelementptr inbounds nuw i8, ptr %0, i64 40
  %36 = load ptr, ptr %35, align 8, !tbaa !17
  %37 = call ptr @mpd_realloc(ptr noundef %36, i64 noundef %32, i64 noundef 8, ptr noundef nonnull %6) #33
  store ptr %37, ptr %35, align 8, !tbaa !17
  %38 = load i8, ptr %6, align 1, !tbaa !22
  %.not5.i.i = icmp eq i8 %38, 0
  br i1 %.not5.i.i, label %39, label %41

39:                                               ; preds = %34
  %40 = load i64, ptr @MPD_MINALLOC, align 8, !tbaa !3
  store i64 %40, ptr %30, align 8, !tbaa !21
  br label %41

41:                                               ; preds = %39, %34
  call void @llvm.lifetime.end.p0(i64 1, ptr nonnull %6) #33
  %.pre.i = load i8, ptr %0, align 8, !tbaa !19
  br label %mpd_seterror.exit

mpd_seterror.exit:                                ; preds = %26, %29, %41
  %42 = phi i8 [ %27, %26 ], [ %27, %29 ], [ %.pre.i, %41 ]
  %43 = and i8 %42, -16
  %44 = or disjoint i8 %43, 4
  store i8 %44, ptr %0, align 8, !tbaa !19
  %45 = getelementptr inbounds nuw i8, ptr %0, i64 8
  call void @llvm.memset.p0.i64(ptr noundef nonnull align 8 dereferenceable(24) %45, i8 0, i64 24, i1 false)
  %46 = load i32, ptr %4, align 4, !tbaa !23
  %47 = or i32 %46, 256
  store i32 %47, ptr %4, align 4, !tbaa !23
  br label %48

48:                                               ; preds = %mpd_seterror.exit, %mpd_qsub.exit
  call void @llvm.lifetime.end.p0(i64 4, ptr nonnull %7) #33
  ret void
}